target datalayout = "e-m:e-p270:32:32-p271:32:32-p272:64:64-i64:64-i128:128-f80:128-n8:16:32:64-S128"
target triple = "x86_64-pc-linux-gnu"

%struct.WebPData = type { ptr, i64 }
%struct.WebPChunkIterator = type { i32, i32, %struct.WebPData, [6 x i32], ptr }

; Function Attrs: nounwind uwtable
define i32 @WebPDemuxGetChunk(ptr noundef %0, ptr noundef %1, i32 noundef %2, ptr noundef %3) #0 {
  %5 = alloca i32, align 4
  %6 = alloca ptr, align 8
  %7 = alloca ptr, align 8
  %8 = alloca i32, align 4
  %9 = alloca ptr, align 8
  store ptr %0, ptr %6, align 8, !tbaa !16
  store ptr %1, ptr %7, align 8, !tbaa !34
  store i32 %2, ptr %8, align 4, !tbaa !8
  store ptr %3, ptr %9, align 8, !tbaa !69
  %10 = load ptr, ptr %9, align 8, !tbaa !69
  %11 = icmp eq ptr %10, null
  br i1 %11, label %12, label %13

12:                                               ; preds = %4
  store i32 0, ptr %5, align 4
  br label %22

13:                                               ; preds = %4
  %14 = load ptr, ptr %9, align 8, !tbaa !69
  call void @llvm.memset.p0.i64(ptr align 8 %14, i8 0, i64 56, i1 false)
  %15 = load ptr, ptr %6, align 8, !tbaa !16
  %16 = load ptr, ptr %9, align 8, !tbaa !69
  %17 = getelementptr inbounds nuw %struct.WebPChunkIterator, ptr %16, i32 0, i32 4
  store ptr %15, ptr %17, align 8, !tbaa !71
  %18 = load ptr, ptr %7, align 8, !tbaa !34
  %19 = load i32, ptr %8, align 4, !tbaa !8
  %20 = load ptr, ptr %9, align 8, !tbaa !69
  %21 = call i32 @SetChunk(ptr noundef %18, i32 noundef %19, ptr noundef %20)
  store i32 %21, ptr %5, align 4
  br label %22

22:                                               ; preds = %13, %12
  %23 = load i32, ptr %5, align 4
  ret i32 %23
}