; Function Attrs: nofree nounwind memory(read, argmem: readwrite, inaccessiblemem: none) uwtable
define range(i32 0, 2) i32 @WebPDemuxGetChunk(ptr noundef %0, ptr noundef captures(address_is_null) %1, i32 noundef %2, ptr noundef captures(address_is_null) %3) local_unnamed_addr #7 {
  %5 = icmp eq ptr %3, null
  br i1 %5, label %9, label %6

6:                                                ; preds = %4
  tail call void @llvm.memset.p0.i64(ptr noundef nonnull align 8 dereferenceable(56) %3, i8 0, i64 48, i1 false)
  %7 = getelementptr inbounds nuw i8, ptr %3, i64 48
  store ptr %0, ptr %7, align 8, !tbaa !78
  %8 = tail call fastcc i32 @SetChunk(ptr noundef %1, i32 noundef %2, ptr noundef %3)
  br label %9

9:                                                ; preds = %4, %6
  %.0 = phi i32 [ %8, %6 ], [ 0, %4 ]
  ret i32 %.0
}